target datalayout = "e-m:e-p270:32:32-p271:32:32-p272:64:64-i64:64-i128:128-f80:128-n8:16:32:64-S128"
target triple = "x86_64-unknown-linux-gnu"

%"class.icu_75::UObject" = type { ptr }
%"class.icu_75::UnicodeString" = type { %"class.icu_75::Replaceable", %"union.icu_75::UnicodeString::StackBufferOrFields" }
%"class.icu_75::Replaceable" = type { %"class.icu_75::UObject" }
%"union.icu_75::UnicodeString::StackBufferOrFields" = type { %struct.anon.6, [32 x i8] }
%struct.anon.6 = type { i16, i32, i32, ptr }
%"class.icu_75::number::impl::PropertiesAffixPatternProvider" = type <{ %"class.icu_75::number::impl::AffixPatternProvider", %"class.icu_75::UnicodeString", %"class.icu_75::UnicodeString", %"class.icu_75::UnicodeString", %"class.icu_75::UnicodeString", i8, i8, i8, [5 x i8] }>
%"class.icu_75::number::impl::AffixPatternProvider" = type { ptr }
%"class.icu_75::ErrorCode" = type <{ ptr, i32, [4 x i8] }>

@_ZTVN6icu_759ErrorCodeE = external unnamed_addr constant { [5 x ptr] }, align 8

; Function Attrs: mustprogress nounwind uwtable
define linkonce_odr noundef nonnull align 4 dereferenceable(4) ptr @_ZN6icu_759ErrorCodecvR10UErrorCodeEv(ptr noundef nonnull align 8 dereferenceable(12) %this) #0 comdat align 2 {
entry:
  %this.addr = alloca ptr, align 8
  store ptr %this, ptr %this.addr, align 8
  %this1 = load ptr, ptr %this.addr, align 8
  %errorCode = getelementptr inbounds %"class.icu_75::ErrorCode", ptr %this1, i32 0, i32 1
  ret ptr %errorCode
}

; Function Attrs: mustprogress nounwind uwtable
define linkonce_odr void @_ZN6icu_759ErrorCodeC2Ev(ptr noundef nonnull align 8 dereferenceable(12) %this) unnamed_addr #0 comdat align 2 {
entry:
  %this.addr = alloca ptr, align 8
  store ptr %this, ptr %this.addr, align 8
  %this1 = load ptr, ptr %this.addr, align 8
  store ptr getelementptr inbounds ({ [5 x ptr] }, ptr @_ZTVN6icu_759ErrorCodeE, i32 0, i32 0, i32 2), ptr %this1, align 8
  %errorCode = getelementptr inbounds %"class.icu_75::ErrorCode", ptr %this1, i32 0, i32 1
  store i32 0, ptr %errorCode, align 8
  ret void
}

; Function Attrs: mustprogress uwtable
define noundef zeroext i1 @_ZNK6icu_756number4impl30PropertiesAffixPatternProvider19positiveHasPlusSignEv(ptr noundef nonnull align 8 dereferenceable(267) %this) unnamed_addr #1 align 2 personality ptr @__gxx_personality_v0 {
entry:
  %this.addr = alloca ptr, align 8
  %localStatus = alloca %"class.icu_75::ErrorCode", align 8
  %exn.slot = alloca ptr, align 8
  %ehselector.slot = alloca i32, align 4
  store ptr %this, ptr %this.addr, align 8
  %this1 = load ptr, ptr %this.addr, align 8
  call void @_ZN6icu_759ErrorCodeC2Ev(ptr noundef nonnull align 8 dereferenceable(12) %localStatus)
  %posPrefix = getelementptr inbounds %"class.icu_75::number::impl::PropertiesAffixPatternProvider", ptr %this1, i32 0, i32 1
  %call = invoke noundef nonnull align 4 dereferenceable(4) ptr @_ZN6icu_759ErrorCodecvR10UErrorCodeEv(ptr noundef nonnull align 8 dereferenceable(12) %localStatus)
          to label %invoke.cont unwind label %lpad

invoke.cont:                                      ; preds = %entry
  %call3 = invoke noundef zeroext i1 @_ZN6icu_756number4impl10AffixUtils12containsTypeERKNS_13UnicodeStringENS1_16AffixPatternTypeER10UErrorCode(ptr noundef nonnull align 8 dereferenceable(64) %posPrefix, i32 noundef -2, ptr noundef nonnull align 4 dereferenceable(4) %call)
          to label %invoke.cont2 unwind label %lpad

invoke.cont2:                                     ; preds = %invoke.cont
  br i1 %call3, label %lor.end, label %lor.rhs

lor.rhs:                                          ; preds = %invoke.cont2
  %posSuffix = getelementptr inbounds %"class.icu_75::number::impl::PropertiesAffixPatternProvider", ptr %this1, i32 0, i32 2
  %call5 = invoke noundef nonnull align 4 dereferenceable(4) ptr @_ZN6icu_759ErrorCodecvR10UErrorCodeEv(ptr noundef nonnull align 8 dereferenceable(12) %localStatus)
          to label %invoke.cont4 unwind label %lpad

invoke.cont4:                                     ; preds = %lor.rhs
  %call7 = invoke noundef zeroext i1 @_ZN6icu_756number4impl10AffixUtils12containsTypeERKNS_13UnicodeStringENS1_16AffixPatternTypeER10UErrorCode(ptr noundef nonnull align 8 dereferenceable(64) %posSuffix, i32 noundef -2, ptr noundef nonnull align 4 dereferenceable(4) %call5)
          to label %invoke.cont6 unwind label %lpad

invoke.cont6:                                     ; preds = %invoke.cont4
  br label %lor.end

lor.end:                                          ; preds = %invoke.cont6, %invoke.cont2
  %0 = phi i1 [ true, %invoke.cont2 ], [ %call7, %invoke.cont6 ]
  call void @_ZN6icu_759ErrorCodeD1Ev(ptr noundef nonnull align 8 dereferenceable(12) %localStatus) #8
  ret i1 %0

lpad:                                             ; preds = %invoke.cont4, %lor.rhs, %invoke.cont, %entry
  %1 = landingpad { ptr, i32 }
          cleanup
  %2 = extractvalue { ptr, i32 } %1, 0
  store ptr %2, ptr %exn.slot, align 8
  %3 = extractvalue { ptr, i32 } %1, 1
  store i32 %3, ptr %ehselector.slot, align 4
  call void @_ZN6icu_759ErrorCodeD1Ev(ptr noundef nonnull align 8 dereferenceable(12) %localStatus) #8
  br label %eh.resume

eh.resume:                                        ; preds = %lpad
  %exn = load ptr, ptr %exn.slot, align 8
  %sel = load i32, ptr %ehselector.slot, align 4
  %lpad.val = insertvalue { ptr, i32 } poison, ptr %exn, 0
  %lpad.val8 = insertvalue { ptr, i32 } %lpad.val, i32 %sel, 1
  resume { ptr, i32 } %lpad.val8
}