; Function Attrs: mustprogress uwtable
define noundef zeroext i1 @_ZNK6icu_756number4impl30PropertiesAffixPatternProvider19positiveHasPlusSignEv(ptr noundef nonnull align 8 dereferenceable(267) %this) unnamed_addr #1 align 2 personality ptr @__gxx_personality_v0 {
entry:
  %localStatus = alloca %"class.icu_75::ErrorCode", align 8
  store ptr getelementptr inbounds ({ [5 x ptr] }, ptr @_ZTVN6icu_759ErrorCodeE, i64 0, i32 0, i64 2), ptr %localStatus, align 8
  %errorCode.i = getelementptr inbounds i8, ptr %localStatus, i64 8
  store i32 0, ptr %errorCode.i, align 8
  %posPrefix = getelementptr inbounds i8, ptr %this, i64 8
  %call3 = invoke noundef zeroext i1 @_ZN6icu_756number4impl10AffixUtils12containsTypeERKNS_13UnicodeStringENS1_16AffixPatternTypeER10UErrorCode(ptr noundef nonnull align 8 dereferenceable(64) %posPrefix, i32 noundef -2, ptr noundef nonnull align 4 dereferenceable(4) %errorCode.i)
          to label %invoke.cont2 unwind label %lpad

invoke.cont2:                                     ; preds = %entry
  br i1 %call3, label %lor.end, label %lor.rhs

lor.rhs:                                          ; preds = %invoke.cont2
  %posSuffix = getelementptr inbounds i8, ptr %this, i64 72
  %call7 = invoke noundef zeroext i1 @_ZN6icu_756number4impl10AffixUtils12containsTypeERKNS_13UnicodeStringENS1_16AffixPatternTypeER10UErrorCode(ptr noundef nonnull align 8 dereferenceable(64) %posSuffix, i32 noundef -2, ptr noundef nonnull align 4 dereferenceable(4) %errorCode.i)
          to label %lor.end unwind label %lpad

lor.end:                                          ; preds = %lor.rhs, %invoke.cont2
  %0 = phi i1 [ true, %invoke.cont2 ], [ %call7, %lor.rhs ]
  call void @_ZN6icu_759ErrorCodeD1Ev(ptr noundef nonnull align 8 dereferenceable(12) %localStatus) #12
  ret i1 %0

lpad:                                             ; preds = %lor.rhs, %entry
  %1 = landingpad { ptr, i32 }
          cleanup
  call void @_ZN6icu_759ErrorCodeD1Ev(ptr noundef nonnull align 8 dereferenceable(12) %localStatus) #12
  resume { ptr, i32 } %1
}